target datalayout = "e-m:e-p270:32:32-p271:32:32-p272:64:64-i64:64-i128:128-f80:128-n8:16:32:64-S128"
target triple = "x86_64-pc-linux-gnu"

%"class.cv::Point_" = type { i32, i32 }
%"class.cv::tracking::impl::tld::TLDEnsembleClassifier" = type <{ %"class.std::vector", %"class.std::vector.0", %"class.std::vector", i32, [4 x i8] }>
%"class.std::vector.0" = type { %"struct.std::_Vector_base.1" }
%"struct.std::_Vector_base.1" = type { %"struct.std::_Vector_base<cv::Vec<unsigned char, 4>, std::allocator<cv::Vec<unsigned char, 4>>>::_Vector_impl" }
%"struct.std::_Vector_base<cv::Vec<unsigned char, 4>, std::allocator<cv::Vec<unsigned char, 4>>>::_Vector_impl" = type { %"struct.std::_Vector_base<cv::Vec<unsigned char, 4>, std::allocator<cv::Vec<unsigned char, 4>>>::_Vector_impl_data" }
%"struct.std::_Vector_base<cv::Vec<unsigned char, 4>, std::allocator<cv::Vec<unsigned char, 4>>>::_Vector_impl_data" = type { ptr, ptr, ptr }
%"class.std::vector" = type { %"struct.std::_Vector_base" }
%"struct.std::_Vector_base" = type { %"struct.std::_Vector_base<cv::Point_<int>, std::allocator<cv::Point_<int>>>::_Vector_impl" }
%"struct.std::_Vector_base<cv::Point_<int>, std::allocator<cv::Point_<int>>>::_Vector_impl" = type { %"struct.std::_Vector_base<cv::Point_<int>, std::allocator<cv::Point_<int>>>::_Vector_impl_data" }
%"struct.std::_Vector_base<cv::Point_<int>, std::allocator<cv::Point_<int>>>::_Vector_impl_data" = type { ptr, ptr, ptr }
%"class.cv::Vec" = type { %"class.cv::Matx" }
%"class.cv::Matx" = type { [4 x i8] }

; Function Attrs: mustprogress nounwind uwtable
define linkonce_odr hidden noundef nonnull align 1 dereferenceable(4) ptr @_ZNKSt6vectorIN2cv3VecIhLi4EEESaIS2_EEixEm(ptr noundef nonnull align 8 dereferenceable(24) %0, i64 noundef %1) #5 comdat align 2 {
  %3 = alloca ptr, align 8
  %4 = alloca i64, align 8
  store ptr %0, ptr %3, align 8, !tbaa !8
  store i64 %1, ptr %4, align 8, !tbaa !28
  %5 = load ptr, ptr %3, align 8
  %6 = getelementptr inbounds nuw %"struct.std::_Vector_base.1", ptr %5, i32 0, i32 0
  %7 = getelementptr inbounds nuw %"struct.std::_Vector_base<cv::Vec<unsigned char, 4>, std::allocator<cv::Vec<unsigned char, 4>>>::_Vector_impl_data", ptr %6, i32 0, i32 0
  %8 = load ptr, ptr %7, align 8, !tbaa !42
  %9 = load i64, ptr %4, align 8, !tbaa !28
  %10 = getelementptr inbounds nuw %"class.cv::Vec", ptr %8, i64 %9
  ret ptr %10
}

; Function Attrs: mustprogress nounwind uwtable
define linkonce_odr hidden noundef i64 @_ZNKSt6vectorIN2cv3VecIhLi4EEESaIS2_EE4sizeEv(ptr noundef nonnull align 8 dereferenceable(24) %0) #5 comdat align 2 {
  %2 = alloca ptr, align 8
  store ptr %0, ptr %2, align 8, !tbaa !8
  %3 = load ptr, ptr %2, align 8
  %4 = getelementptr inbounds nuw %"struct.std::_Vector_base.1", ptr %3, i32 0, i32 0
  %5 = getelementptr inbounds nuw %"struct.std::_Vector_base<cv::Vec<unsigned char, 4>, std::allocator<cv::Vec<unsigned char, 4>>>::_Vector_impl_data", ptr %4, i32 0, i32 1
  %6 = load ptr, ptr %5, align 8, !tbaa !43
  %7 = getelementptr inbounds nuw %"struct.std::_Vector_base.1", ptr %3, i32 0, i32 0
  %8 = getelementptr inbounds nuw %"struct.std::_Vector_base<cv::Vec<unsigned char, 4>, std::allocator<cv::Vec<unsigned char, 4>>>::_Vector_impl_data", ptr %7, i32 0, i32 0
  %9 = load ptr, ptr %8, align 8, !tbaa !42
  %10 = ptrtoint ptr %6 to i64
  %11 = ptrtoint ptr %9 to i64
  %12 = sub i64 %10, %11
  %13 = sdiv exact i64 %12, 4
  ret i64 %13
}

; Function Attrs: mustprogress nounwind uwtable
define linkonce_odr hidden noundef nonnull align 4 dereferenceable(8) ptr @_ZNKSt6vectorIN2cv6Point_IiEESaIS2_EEixEm(ptr noundef nonnull align 8 dereferenceable(24) %0, i64 noundef %1) #5 comdat align 2 {
  %3 = alloca ptr, align 8
  %4 = alloca i64, align 8
  store ptr %0, ptr %3, align 8, !tbaa !26
  store i64 %1, ptr %4, align 8, !tbaa !28
  %5 = load ptr, ptr %3, align 8
  %6 = getelementptr inbounds nuw %"struct.std::_Vector_base", ptr %5, i32 0, i32 0
  %7 = getelementptr inbounds nuw %"struct.std::_Vector_base<cv::Point_<int>, std::allocator<cv::Point_<int>>>::_Vector_impl_data", ptr %6, i32 0, i32 0
  %8 = load ptr, ptr %7, align 8, !tbaa !40
  %9 = load i64, ptr %4, align 8, !tbaa !28
  %10 = getelementptr inbounds nuw %"class.cv::Point_", ptr %8, i64 %9
  ret ptr %10
}

; Function Attrs: mustprogress nounwind uwtable
define hidden noundef i32 @_ZNK2cv8tracking4impl3tld21TLDEnsembleClassifier4codeEPKhi(ptr noundef nonnull align 8 dereferenceable(76) %0, ptr noundef %1, i32 noundef %2) #5 align 2 {
  %4 = alloca ptr, align 8
  %5 = alloca ptr, align 8
  %6 = alloca i32, align 4
  %7 = alloca i32, align 4
  %8 = alloca i32, align 4
  store ptr %0, ptr %4, align 8, !tbaa !3
  store ptr %1, ptr %5, align 8, !tbaa !62
  store i32 %2, ptr %6, align 4, !tbaa !10
  %9 = load ptr, ptr %4, align 8
  call void @llvm.lifetime.start.p0(i64 4, ptr %7) #3
  store i32 0, ptr %7, align 4, !tbaa !10
  call void @llvm.lifetime.start.p0(i64 4, ptr %8) #3
  store i32 0, ptr %8, align 4, !tbaa !10
  br label %10

10:                                               ; preds = %75, %3
  %11 = load i32, ptr %8, align 4, !tbaa !10
  %12 = getelementptr inbounds nuw %"class.cv::tracking::impl::tld::TLDEnsembleClassifier", ptr %9, i32 0, i32 1
  %13 = call noundef i64 @_ZNKSt6vectorIN2cv3VecIhLi4EEESaIS2_EE4sizeEv(ptr noundef nonnull align 8 dereferenceable(24) %12) #3
  %14 = trunc i64 %13 to i32
  %15 = icmp slt i32 %11, %14
  br i1 %15, label %17, label %16

16:                                               ; preds = %10
  call void @llvm.lifetime.end.p0(i64 4, ptr %8) #3
  br label %78

17:                                               ; preds = %10
  %18 = load i32, ptr %7, align 4, !tbaa !10
  %19 = shl i32 %18, 1
  store i32 %19, ptr %7, align 4, !tbaa !10
  %20 = load ptr, ptr %5, align 8, !tbaa !62
  %21 = load i32, ptr %6, align 4, !tbaa !10
  %22 = getelementptr inbounds nuw %"class.cv::tracking::impl::tld::TLDEnsembleClassifier", ptr %9, i32 0, i32 1
  %23 = load i32, ptr %8, align 4, !tbaa !10
  %24 = sext i32 %23 to i64
  %25 = call noundef nonnull align 1 dereferenceable(4) ptr @_ZNKSt6vectorIN2cv3VecIhLi4EEESaIS2_EEixEm(ptr noundef nonnull align 8 dereferenceable(24) %22, i64 noundef %24) #3
  %26 = getelementptr inbounds nuw %"class.cv::Matx", ptr %25, i32 0, i32 0
  %27 = getelementptr inbounds [4 x i8], ptr %26, i64 0, i64 2
  %28 = load i8, ptr %27, align 1, !tbaa !44
  %29 = zext i8 %28 to i32
  %30 = mul nsw i32 %21, %29
  %31 = sext i32 %30 to i64
  %32 = getelementptr inbounds i8, ptr %20, i64 %31
  %33 = getelementptr inbounds nuw %"class.cv::tracking::impl::tld::TLDEnsembleClassifier", ptr %9, i32 0, i32 1
  %34 = load i32, ptr %8, align 4, !tbaa !10
  %35 = sext i32 %34 to i64
  %36 = call noundef nonnull align 1 dereferenceable(4) ptr @_ZNKSt6vectorIN2cv3VecIhLi4EEESaIS2_EEixEm(ptr noundef nonnull align 8 dereferenceable(24) %33, i64 noundef %35) #3
  %37 = getelementptr inbounds nuw %"class.cv::Matx", ptr %36, i32 0, i32 0
  %38 = getelementptr inbounds [4 x i8], ptr %37, i64 0, i64 0
  %39 = load i8, ptr %38, align 1, !tbaa !44
  %40 = zext i8 %39 to i32
  %41 = sext i32 %40 to i64
  %42 = getelementptr inbounds i8, ptr %32, i64 %41
  %43 = load i8, ptr %42, align 1, !tbaa !44
  %44 = zext i8 %43 to i32
  %45 = load ptr, ptr %5, align 8, !tbaa !62
  %46 = load i32, ptr %6, align 4, !tbaa !10
  %47 = getelementptr inbounds nuw %"class.cv::tracking::impl::tld::TLDEnsembleClassifier", ptr %9, i32 0, i32 1
  %48 = load i32, ptr %8, align 4, !tbaa !10
  %49 = sext i32 %48 to i64
  %50 = call noundef nonnull align 1 dereferenceable(4) ptr @_ZNKSt6vectorIN2cv3VecIhLi4EEESaIS2_EEixEm(ptr noundef nonnull align 8 dereferenceable(24) %47, i64 noundef %49) #3
  %51 = getelementptr inbounds nuw %"class.cv::Matx", ptr %50, i32 0, i32 0
  %52 = getelementptr inbounds [4 x i8], ptr %51, i64 0, i64 3
  %53 = load i8, ptr %52, align 1, !tbaa !44
  %54 = zext i8 %53 to i32
  %55 = mul nsw i32 %46, %54
  %56 = sext i32 %55 to i64
  %57 = getelementptr inbounds i8, ptr %45, i64 %56
  %58 = getelementptr inbounds nuw %"class.cv::tracking::impl::tld::TLDEnsembleClassifier", ptr %9, i32 0, i32 1
  %59 = load i32, ptr %8, align 4, !tbaa !10
  %60 = sext i32 %59 to i64
  %61 = call noundef nonnull align 1 dereferenceable(4) ptr @_ZNKSt6vectorIN2cv3VecIhLi4EEESaIS2_EEixEm(ptr noundef nonnull align 8 dereferenceable(24) %58, i64 noundef %60) #3
  %62 = getelementptr inbounds nuw %"class.cv::Matx", ptr %61, i32 0, i32 0
  %63 = getelementptr inbounds [4 x i8], ptr %62, i64 0, i64 1
  %64 = load i8, ptr %63, align 1, !tbaa !44
  %65 = zext i8 %64 to i32
  %66 = sext i32 %65 to i64
  %67 = getelementptr inbounds i8, ptr %57, i64 %66
  %68 = load i8, ptr %67, align 1, !tbaa !44
  %69 = zext i8 %68 to i32
  %70 = icmp slt i32 %44, %69
  br i1 %70, label %71, label %74

71:                                               ; preds = %17
  %72 = load i32, ptr %7, align 4, !tbaa !10
  %73 = add nsw i32 %72, 1
  store i32 %73, ptr %7, align 4, !tbaa !10
  br label %74

74:                                               ; preds = %71, %17
  br label %75

75:                                               ; preds = %74
  %76 = load i32, ptr %8, align 4, !tbaa !10
  %77 = add nsw i32 %76, 1
  store i32 %77, ptr %8, align 4, !tbaa !10
  br label %10, !llvm.loop !63

78:                                               ; preds = %16
  %79 = load i32, ptr %7, align 4, !tbaa !10
  call void @llvm.lifetime.end.p0(i64 4, ptr %7) #3
  ret i32 %79
}

; Function Attrs: mustprogress uwtable
define hidden noundef double @_ZNK2cv8tracking4impl3tld21TLDEnsembleClassifier20posteriorProbabilityEPKhi(ptr noundef nonnull align 8 dereferenceable(76) %0, ptr noundef %1, i32 noundef %2) #4 align 2 {
  %4 = alloca double, align 8
  %5 = alloca ptr, align 8
  %6 = alloca ptr, align 8
  %7 = alloca i32, align 4
  %8 = alloca i32, align 4
  %9 = alloca double, align 8
  %10 = alloca double, align 8
  %11 = alloca i32, align 4
  store ptr %0, ptr %5, align 8, !tbaa !3
  store ptr %1, ptr %6, align 8, !tbaa !62
  store i32 %2, ptr %7, align 4, !tbaa !10
  %12 = load ptr, ptr %5, align 8
  call void @llvm.lifetime.start.p0(i64 4, ptr %8) #3
  %13 = load ptr, ptr %6, align 8, !tbaa !62
  %14 = load i32, ptr %7, align 4, !tbaa !10
  %15 = call noundef i32 @_ZNK2cv8tracking4impl3tld21TLDEnsembleClassifier4codeEPKhi(ptr noundef nonnull align 8 dereferenceable(76) %12, ptr noundef %13, i32 noundef %14)
  store i32 %15, ptr %8, align 4, !tbaa !10
  call void @llvm.lifetime.start.p0(i64 8, ptr %9) #3
  %16 = getelementptr inbounds nuw %"class.cv::tracking::impl::tld::TLDEnsembleClassifier", ptr %12, i32 0, i32 0
  %17 = load i32, ptr %8, align 4, !tbaa !10
  %18 = sext i32 %17 to i64
  %19 = call noundef nonnull align 4 dereferenceable(8) ptr @_ZNKSt6vectorIN2cv6Point_IiEESaIS2_EEixEm(ptr noundef nonnull align 8 dereferenceable(24) %16, i64 noundef %18) #3
  %20 = getelementptr inbounds nuw %"class.cv::Point_", ptr %19, i32 0, i32 0
  %21 = load i32, ptr %20, align 4, !tbaa !31
  %22 = sitofp i32 %21 to double
  store double %22, ptr %9, align 8, !tbaa !67
  call void @llvm.lifetime.start.p0(i64 8, ptr %10) #3
  %23 = getelementptr inbounds nuw %"class.cv::tracking::impl::tld::TLDEnsembleClassifier", ptr %12, i32 0, i32 0
  %24 = load i32, ptr %8, align 4, !tbaa !10
  %25 = sext i32 %24 to i64
  %26 = call noundef nonnull align 4 dereferenceable(8) ptr @_ZNKSt6vectorIN2cv6Point_IiEESaIS2_EEixEm(ptr noundef nonnull align 8 dereferenceable(24) %23, i64 noundef %25) #3
  %27 = getelementptr inbounds nuw %"class.cv::Point_", ptr %26, i32 0, i32 1
  %28 = load i32, ptr %27, align 4, !tbaa !33
  %29 = sitofp i32 %28 to double
  store double %29, ptr %10, align 8, !tbaa !67
  %30 = load double, ptr %9, align 8, !tbaa !67
  %31 = fcmp oeq double %30, 0.000000e+00
  br i1 %31, label %32, label %36

32:                                               ; preds = %3
  %33 = load double, ptr %10, align 8, !tbaa !67
  %34 = fcmp oeq double %33, 0.000000e+00
  br i1 %34, label %35, label %36

35:                                               ; preds = %32
  store double 0.000000e+00, ptr %4, align 8
  store i32 1, ptr %11, align 4
  br label %42

36:                                               ; preds = %32, %3
  %37 = load double, ptr %9, align 8, !tbaa !67
  %38 = load double, ptr %9, align 8, !tbaa !67
  %39 = load double, ptr %10, align 8, !tbaa !67
  %40 = fadd double %38, %39
  %41 = fdiv double %37, %40
  store double %41, ptr %4, align 8
  store i32 1, ptr %11, align 4
  br label %42

42:                                               ; preds = %36, %35
  call void @llvm.lifetime.end.p0(i64 8, ptr %10) #3
  call void @llvm.lifetime.end.p0(i64 8, ptr %9) #3
  call void @llvm.lifetime.end.p0(i64 4, ptr %8) #3
  %43 = load double, ptr %4, align 8
  ret double %43
}