; Function Attrs: mustprogress nofree norecurse nosync nounwind willreturn memory(read, inaccessiblemem: none) uwtable
define hidden noundef double @_ZNK2cv8tracking4impl3tld21TLDEnsembleClassifier20posteriorProbabilityEPKhi(ptr noundef nonnull readonly align 8 captures(none) dereferenceable(76) %0, ptr noundef readonly captures(none) %1, i32 noundef %2) local_unnamed_addr #6 align 2 {
  %4 = getelementptr inbounds nuw i8, ptr %0, i64 24
  %5 = getelementptr inbounds nuw i8, ptr %0, i64 32
  %6 = load ptr, ptr %5, align 8, !tbaa !27
  %7 = load ptr, ptr %4, align 8, !tbaa !26
  %8 = ptrtoint ptr %6 to i64
  %9 = ptrtoint ptr %7 to i64
  %10 = sub i64 %8, %9
  %11 = lshr exact i64 %10, 2
  %12 = trunc i64 %11 to i32
  %13 = icmp sgt i32 %12, 0
  br i1 %13, label %.lr.ph.preheader.i, label %_ZNK2cv8tracking4impl3tld21TLDEnsembleClassifier4codeEPKhi.exit

.lr.ph.preheader.i:                               ; preds = %3
  %wide.trip.count.i = and i64 %11, 2147483647
  br label %.lr.ph.i

.lr.ph.i:                                         ; preds = %.lr.ph.i, %.lr.ph.preheader.i
  %indvars.iv.i = phi i64 [ 0, %.lr.ph.preheader.i ], [ %indvars.iv.next.i, %.lr.ph.i ]
  %.01314.i = phi i32 [ 0, %.lr.ph.preheader.i ], [ %spec.select.i, %.lr.ph.i ]
  %14 = shl i32 %.01314.i, 1
  %15 = getelementptr inbounds nuw %"class.cv::Vec", ptr %7, i64 %indvars.iv.i
  %16 = getelementptr inbounds nuw i8, ptr %15, i64 2
  %17 = load i8, ptr %16, align 1, !tbaa !28
  %18 = zext i8 %17 to i32
  %19 = mul nsw i32 %2, %18
  %20 = sext i32 %19 to i64
  %21 = getelementptr inbounds i8, ptr %1, i64 %20
  %22 = load i8, ptr %15, align 1, !tbaa !28
  %23 = zext i8 %22 to i64
  %24 = getelementptr inbounds nuw i8, ptr %21, i64 %23
  %25 = load i8, ptr %24, align 1, !tbaa !28
  %26 = getelementptr inbounds nuw i8, ptr %15, i64 3
  %27 = load i8, ptr %26, align 1, !tbaa !28
  %28 = zext i8 %27 to i32
  %29 = mul nsw i32 %2, %28
  %30 = sext i32 %29 to i64
  %31 = getelementptr inbounds i8, ptr %1, i64 %30
  %32 = getelementptr inbounds nuw i8, ptr %15, i64 1
  %33 = load i8, ptr %32, align 1, !tbaa !28
  %34 = zext i8 %33 to i64
  %35 = getelementptr inbounds nuw i8, ptr %31, i64 %34
  %36 = load i8, ptr %35, align 1, !tbaa !28
  %37 = icmp ult i8 %25, %36
  %38 = zext i1 %37 to i32
  %spec.select.i = or disjoint i32 %14, %38
  %indvars.iv.next.i = add nuw nsw i64 %indvars.iv.i, 1
  %exitcond.not.i = icmp eq i64 %indvars.iv.next.i, %wide.trip.count.i
  br i1 %exitcond.not.i, label %_ZNK2cv8tracking4impl3tld21TLDEnsembleClassifier4codeEPKhi.exit.loopexit, label %.lr.ph.i, !llvm.loop !44

_ZNK2cv8tracking4impl3tld21TLDEnsembleClassifier4codeEPKhi.exit.loopexit: ; preds = %.lr.ph.i
  %39 = sext i32 %spec.select.i to i64
  br label %_ZNK2cv8tracking4impl3tld21TLDEnsembleClassifier4codeEPKhi.exit

_ZNK2cv8tracking4impl3tld21TLDEnsembleClassifier4codeEPKhi.exit: ; preds = %_ZNK2cv8tracking4impl3tld21TLDEnsembleClassifier4codeEPKhi.exit.loopexit, %3
  %.013.lcssa.i = phi i64 [ 0, %3 ], [ %39, %_ZNK2cv8tracking4impl3tld21TLDEnsembleClassifier4codeEPKhi.exit.loopexit ]
  %40 = load ptr, ptr %0, align 8, !tbaa !25
  %41 = getelementptr inbounds nuw %"class.cv::Point_", ptr %40, i64 %.013.lcssa.i
  %42 = load i32, ptr %41, align 4, !tbaa !19
  %43 = getelementptr inbounds nuw i8, ptr %41, i64 4
  %44 = load i32, ptr %43, align 4, !tbaa !21
  %45 = icmp eq i32 %42, 0
  %46 = icmp eq i32 %44, 0
  %or.cond = select i1 %45, i1 %46, i1 false
  %47 = sitofp i32 %44 to double
  %48 = sitofp i32 %42 to double
  %49 = fadd double %48, %47
  %50 = fdiv double %48, %49
  %.0 = select i1 %or.cond, double 0.000000e+00, double %50
  ret double %.0
}